; Function Attrs: mustprogress uwtable
define dso_local noundef zeroext i1 @_ZN3net10QuicConfig35SetInitialReceivedConnectionOptionsERKSt6vectorIjSaIjEE(ptr noundef nonnull align 8 dereferenceable(600) %this, ptr noundef nonnull align 8 dereferenceable(24) %tags) local_unnamed_addr #0 align 2 {
entry:
  %has_receive_values_.i.i = getelementptr inbounds i8, ptr %this, i64 112
  %0 = load i8, ptr %has_receive_values_.i.i, align 8
  %1 = and i8 %0, 1
  %tobool.i.i.not = icmp eq i8 %1, 0
  br i1 %tobool.i.i.not, label %if.end, label %return

if.end:                                           ; preds = %entry
  store i8 1, ptr %has_receive_values_.i.i, align 8
  %receive_values_.i = getelementptr inbounds i8, ptr %this, i64 88
  %call.i = tail call noundef nonnull align 8 dereferenceable(24) ptr @_ZNSt6vectorIjSaIjEEaSERKS1_(ptr noundef nonnull align 8 dereferenceable(24) %receive_values_.i, ptr noundef nonnull align 8 dereferenceable(24) %tags)
  br label %return

return:                                           ; preds = %entry, %if.end
  ret i1 %tobool.i.i.not
}